target datalayout = "e-m:e-p270:32:32-p271:32:32-p272:64:64-i64:64-i128:128-f80:128-n8:16:32:64-S128"
target triple = "x86_64-pc-linux-gnu"

%struct.DdNode = type { i32, i32, ptr, %union.anon, i64 }
%union.anon = type { %struct.DdChildren }
%struct.DdChildren = type { ptr, ptr }
%struct.DdManager = type { %struct.DdNode, ptr, ptr, ptr, ptr, ptr, ptr, ptr, i32, i32, double, double, double, i32, i32, i32, i32, i32, i32, ptr, ptr, %struct.DdSubtable, i32, i32, i32, i32, i32, i32, i32, double, i32, i32, i32, ptr, i64, double, i32, ptr, ptr, ptr, ptr, ptr, ptr, ptr, i32, ptr, ptr, ptr, ptr, ptr, ptr, i32, i32, i32, double, i32, i32, i32, i32, double, double, i32, i32, i32, i32, i32, i32, i32, i32, i32, ptr, ptr, i32, i32, i32, i32, i32, i32, ptr, ptr, ptr, ptr, ptr, ptr, ptr, ptr, i32, i64, i64, i64, i32, i64, i64, double, double, double, double, double, double, i32, ptr, ptr, i64 }
%struct.DdSubtable = type { ptr, i32, i32, i32, i32, i32, i32, i32, i32, i32, i32, i32 }

; Function Attrs: nounwind uwtable
define ptr @Cudd_addIthBit(ptr noundef %0, ptr noundef %1, i32 noundef %2) #0 {
  %4 = alloca ptr, align 8
  %5 = alloca ptr, align 8
  %6 = alloca ptr, align 8
  %7 = alloca i32, align 4
  %8 = alloca ptr, align 8
  %9 = alloca ptr, align 8
  %10 = alloca i32, align 4
  store ptr %0, ptr %5, align 8, !tbaa !3
  store ptr %1, ptr %6, align 8, !tbaa !8
  store i32 %2, ptr %7, align 4, !tbaa !30
  call void @llvm.lifetime.start.p0(i64 8, ptr %8) #3
  call void @llvm.lifetime.start.p0(i64 8, ptr %9) #3
  %11 = load ptr, ptr %5, align 8, !tbaa !3
  %12 = load i32, ptr %7, align 4, !tbaa !30
  %13 = sitofp i32 %12 to double
  %14 = call ptr @cuddUniqueConst(ptr noundef %11, double noundef %13)
  store ptr %14, ptr %9, align 8, !tbaa !8
  %15 = load ptr, ptr %9, align 8, !tbaa !8
  %16 = icmp eq ptr %15, null
  br i1 %16, label %17, label %18

17:                                               ; preds = %3
  store ptr null, ptr %4, align 8
  store i32 1, ptr %10, align 4
  br label %62

18:                                               ; preds = %3
  %19 = load ptr, ptr %9, align 8, !tbaa !8
  %20 = ptrtoint ptr %19 to i64
  %21 = and i64 %20, -2
  %22 = inttoptr i64 %21 to ptr
  %23 = getelementptr inbounds nuw %struct.DdNode, ptr %22, i32 0, i32 1
  %24 = load i32, ptr %23, align 4, !tbaa !31
  %25 = add i32 %24, 1
  store i32 %25, ptr %23, align 4, !tbaa !31
  br label %26

26:                                               ; preds = %33, %18
  %27 = load ptr, ptr %5, align 8, !tbaa !3
  %28 = getelementptr inbounds nuw %struct.DdManager, ptr %27, i32 0, i32 55
  store i32 0, ptr %28, align 8, !tbaa !32
  %29 = load ptr, ptr %5, align 8, !tbaa !3
  %30 = load ptr, ptr %6, align 8, !tbaa !8
  %31 = load ptr, ptr %9, align 8, !tbaa !8
  %32 = call ptr @addDoIthBit(ptr noundef %29, ptr noundef %30, ptr noundef %31)
  store ptr %32, ptr %8, align 8, !tbaa !8
  br label %33

33:                                               ; preds = %26
  %34 = load ptr, ptr %5, align 8, !tbaa !3
  %35 = getelementptr inbounds nuw %struct.DdManager, ptr %34, i32 0, i32 55
  %36 = load i32, ptr %35, align 8, !tbaa !32
  %37 = icmp eq i32 %36, 1
  br i1 %37, label %26, label %38, !llvm.loop !33

38:                                               ; preds = %33
  %39 = load ptr, ptr %8, align 8, !tbaa !8
  %40 = icmp eq ptr %39, null
  br i1 %40, label %41, label %44

41:                                               ; preds = %38
  %42 = load ptr, ptr %5, align 8, !tbaa !3
  %43 = load ptr, ptr %9, align 8, !tbaa !8
  call void @Cudd_RecursiveDeref(ptr noundef %42, ptr noundef %43)
  store ptr null, ptr %4, align 8
  store i32 1, ptr %10, align 4
  br label %62

44:                                               ; preds = %38
  %45 = load ptr, ptr %8, align 8, !tbaa !8
  %46 = ptrtoint ptr %45 to i64
  %47 = and i64 %46, -2
  %48 = inttoptr i64 %47 to ptr
  %49 = getelementptr inbounds nuw %struct.DdNode, ptr %48, i32 0, i32 1
  %50 = load i32, ptr %49, align 4, !tbaa !31
  %51 = add i32 %50, 1
  store i32 %51, ptr %49, align 4, !tbaa !31
  %52 = load ptr, ptr %5, align 8, !tbaa !3
  %53 = load ptr, ptr %9, align 8, !tbaa !8
  call void @Cudd_RecursiveDeref(ptr noundef %52, ptr noundef %53)
  %54 = load ptr, ptr %8, align 8, !tbaa !8
  %55 = ptrtoint ptr %54 to i64
  %56 = and i64 %55, -2
  %57 = inttoptr i64 %56 to ptr
  %58 = getelementptr inbounds nuw %struct.DdNode, ptr %57, i32 0, i32 1
  %59 = load i32, ptr %58, align 4, !tbaa !31
  %60 = add i32 %59, -1
  store i32 %60, ptr %58, align 4, !tbaa !31
  %61 = load ptr, ptr %8, align 8, !tbaa !8
  store ptr %61, ptr %4, align 8
  store i32 1, ptr %10, align 4
  br label %62

62:                                               ; preds = %44, %41, %17
  call void @llvm.lifetime.end.p0(i64 8, ptr %9) #3
  call void @llvm.lifetime.end.p0(i64 8, ptr %8) #3
  %63 = load ptr, ptr %4, align 8
  ret ptr %63
}