; Function Attrs: nounwind uwtable
define ptr @Cudd_addIthBit(ptr noundef %0, ptr noundef %1, i32 noundef %2) local_unnamed_addr #0 {
  %4 = sitofp i32 %2 to double
  %5 = tail call ptr @cuddUniqueConst(ptr noundef %0, double noundef %4) #2
  %6 = icmp eq ptr %5, null
  br i1 %6, label %31, label %7

7:                                                ; preds = %3
  %8 = ptrtoint ptr %5 to i64
  %9 = and i64 %8, -2
  %10 = inttoptr i64 %9 to ptr
  %11 = getelementptr inbounds nuw i8, ptr %10, i64 4
  %12 = load i32, ptr %11, align 4, !tbaa !27
  %13 = add i32 %12, 1
  store i32 %13, ptr %11, align 4, !tbaa !27
  %14 = getelementptr inbounds nuw i8, ptr %0, i64 448
  br label %15

15:                                               ; preds = %15, %7
  store i32 0, ptr %14, align 8, !tbaa !28
  %16 = tail call ptr @addDoIthBit(ptr noundef %0, ptr noundef %1, ptr noundef nonnull %5)
  %17 = load i32, ptr %14, align 8, !tbaa !28
  %18 = icmp eq i32 %17, 1
  br i1 %18, label %15, label %19, !llvm.loop !29

19:                                               ; preds = %15
  %20 = icmp eq ptr %16, null
  br i1 %20, label %21, label %22

21:                                               ; preds = %19
  tail call void @Cudd_RecursiveDeref(ptr noundef nonnull %0, ptr noundef nonnull %5) #2
  br label %31

22:                                               ; preds = %19
  %23 = ptrtoint ptr %16 to i64
  %24 = and i64 %23, -2
  %25 = inttoptr i64 %24 to ptr
  %26 = getelementptr inbounds nuw i8, ptr %25, i64 4
  %27 = load i32, ptr %26, align 4, !tbaa !27
  %28 = add i32 %27, 1
  store i32 %28, ptr %26, align 4, !tbaa !27
  tail call void @Cudd_RecursiveDeref(ptr noundef nonnull %0, ptr noundef nonnull %5) #2
  %29 = load i32, ptr %26, align 4, !tbaa !27
  %30 = add i32 %29, -1
  store i32 %30, ptr %26, align 4, !tbaa !27
  br label %31

31:                                               ; preds = %3, %22, %21
  %.0 = phi ptr [ null, %21 ], [ %16, %22 ], [ null, %3 ]
  ret ptr %.0
}